target datalayout = "e-m:e-p270:32:32-p271:32:32-p272:64:64-i64:64-i128:128-f80:128-n8:16:32:64-S128"
target triple = "x86_64-pc-linux-gnu"

%struct.expert_field = type { i32, i32 }
%struct._packet_info = type { ptr, ptr, i32, i32, %struct.nstime_t, %struct.nstime_t, %struct.nstime_t, i8, ptr, ptr, ptr, ptr, %struct._address, %struct._address, %struct._address, %struct._address, %struct._address, %struct._address, i32, ptr, i8, [3 x i8], %struct.anon, i32, i32, i32, i32, ptr, i8, ptr, ptr, i16, i16, i32, i32, i16, i32, i32, ptr, ptr, ptr, i8, i8, i16, i16, i16, i32, i16, i16, ptr, ptr, ptr, ptr, ptr, i32, i32 }
%struct.nstime_t = type { i64, i32 }
%struct._address = type { i32, i32, ptr, ptr }
%struct.anon = type { i8, [3 x i8] }

@hf_vpp_buffer_index = internal global i32 0, align 4
@hf_vpp_nodename = internal global i32 0, align 4
@hf_vpp_major_version = internal global i32 0, align 4
@hf_vpp_minor_version = internal global i32 0, align 4
@hf_vpp_protocol_hint = internal global i32 0, align 4
@ei_vpp_major_version_error = internal global %struct.expert_field zeroinitializer, align 4
@ei_vpp_minor_version_error = internal global %struct.expert_field zeroinitializer, align 4
@ei_vpp_protocol_hint_error = internal global %struct.expert_field zeroinitializer, align 4
@ett_vpp = internal global i32 0, align 4
@.str.25 = private unnamed_addr constant [4 x i8] c"VPP\00", align 1
@proto_vpp = internal global i32 0, align 4
@next_dissectors = internal global [6 x ptr] zeroinitializer, align 16
@vpp_metadata_dissector_handle = internal global ptr null, align 8
@vpp_opaque_dissector_handle = internal global ptr null, align 8
@vpp_opaque2_dissector_handle = internal global ptr null, align 8
@vpp_trace_dissector_handle = internal global ptr null, align 8
@.str.49 = private unnamed_addr constant [38 x i8] c"Major Version Mismatch read %d not %d\00", align 1
@.str.50 = private unnamed_addr constant [38 x i8] c"Minor Version Mismatch read %d not %d\00", align 1
@.str.51 = private unnamed_addr constant [38 x i8] c"Protocol hint %d out of range, max %d\00", align 1

; Function Attrs: null_pointer_is_valid sspstrong uwtable
define internal i32 @dissect_vpp(ptr noundef %0, ptr noundef %1, ptr noundef %2, ptr noundef %3) #0 {
  %5 = alloca i32, align 4
  %6 = alloca ptr, align 8
  %7 = alloca ptr, align 8
  %8 = alloca ptr, align 8
  %9 = alloca ptr, align 8
  %10 = alloca ptr, align 8
  %11 = alloca ptr, align 8
  %12 = alloca ptr, align 8
  %13 = alloca ptr, align 8
  %14 = alloca ptr, align 8
  %15 = alloca ptr, align 8
  %16 = alloca ptr, align 8
  %17 = alloca i32, align 4
  %18 = alloca i8, align 1
  %19 = alloca i8, align 1
  %20 = alloca i8, align 1
  %21 = alloca i8, align 1
  %22 = alloca ptr, align 8
  %23 = alloca i32, align 4
  %24 = alloca i8, align 1
  %25 = alloca ptr, align 8
  %26 = alloca ptr, align 8
  %27 = alloca i32, align 4
  %28 = alloca ptr, align 8
  %29 = alloca ptr, align 8
  store ptr %0, ptr %6, align 8
  store ptr %1, ptr %7, align 8
  store ptr %2, ptr %8, align 8
  store ptr %3, ptr %9, align 8
  call void @llvm.lifetime.start.p0(i64 8, ptr %10) #3
  call void @llvm.lifetime.start.p0(i64 8, ptr %11) #3
  call void @llvm.lifetime.start.p0(i64 8, ptr %12) #3
  call void @llvm.lifetime.start.p0(i64 8, ptr %13) #3
  call void @llvm.lifetime.start.p0(i64 8, ptr %14) #3
  call void @llvm.lifetime.start.p0(i64 8, ptr %15) #3
  call void @llvm.lifetime.start.p0(i64 8, ptr %16) #3
  call void @llvm.lifetime.start.p0(i64 4, ptr %17) #3
  store i32 0, ptr %17, align 4
  call void @llvm.lifetime.start.p0(i64 1, ptr %18) #3
  call void @llvm.lifetime.start.p0(i64 1, ptr %19) #3
  call void @llvm.lifetime.start.p0(i64 1, ptr %20) #3
  call void @llvm.lifetime.start.p0(i64 1, ptr %21) #3
  call void @llvm.lifetime.start.p0(i64 8, ptr %22) #3
  call void @llvm.lifetime.start.p0(i64 4, ptr %23) #3
  call void @llvm.lifetime.start.p0(i64 1, ptr %24) #3
  call void @llvm.lifetime.start.p0(i64 8, ptr %25) #3
  %30 = load ptr, ptr %7, align 8
  %31 = getelementptr inbounds nuw %struct._packet_info, ptr %30, i32 0, i32 1
  %32 = load ptr, ptr %31, align 8
  call void @col_set_str(ptr noundef %32, i32 noundef 35, ptr noundef @.str.25)
  %33 = load ptr, ptr %7, align 8
  %34 = getelementptr inbounds nuw %struct._packet_info, ptr %33, i32 0, i32 1
  %35 = load ptr, ptr %34, align 8
  call void @col_clear(ptr noundef %35, i32 noundef 25)
  %36 = load ptr, ptr %8, align 8
  %37 = load i32, ptr @proto_vpp, align 4
  %38 = load ptr, ptr %6, align 8
  %39 = load i32, ptr %17, align 4
  %40 = call ptr @proto_tree_add_item(ptr noundef %36, i32 noundef %37, ptr noundef %38, i32 noundef %39, i32 noundef -1, i32 noundef 0)
  store ptr %40, ptr %10, align 8
  %41 = load ptr, ptr %10, align 8
  %42 = load i32, ptr @ett_vpp, align 4
  %43 = call ptr @proto_item_add_subtree(ptr noundef %41, i32 noundef %42)
  store ptr %43, ptr %11, align 8
  %44 = load ptr, ptr %6, align 8
  %45 = load i32, ptr %17, align 4
  %46 = call zeroext i8 @tvb_get_uint8(ptr noundef %44, i32 noundef %45)
  store i8 %46, ptr %18, align 1
  %47 = load i8, ptr %18, align 1
  %48 = zext i8 %47 to i32
  %49 = icmp ne i32 %48, 1
  br i1 %49, label %50, label %63

50:                                               ; preds = %4
  call void @llvm.lifetime.start.p0(i64 8, ptr %26) #3
  %51 = load ptr, ptr %8, align 8
  %52 = load i32, ptr @hf_vpp_major_version, align 4
  %53 = load ptr, ptr %6, align 8
  %54 = load i32, ptr %17, align 4
  %55 = call ptr @proto_tree_add_item(ptr noundef %51, i32 noundef %52, ptr noundef %53, i32 noundef %54, i32 noundef 1, i32 noundef 0)
  store ptr %55, ptr %26, align 8
  %56 = load ptr, ptr %7, align 8
  %57 = load ptr, ptr %26, align 8
  %58 = load i8, ptr %18, align 1
  %59 = zext i8 %58 to i32
  %60 = call ptr (ptr, ptr, ptr, ptr, ...) @expert_add_info_format(ptr noundef %56, ptr noundef %57, ptr noundef @ei_vpp_major_version_error, ptr noundef @.str.49, i32 noundef %59, i32 noundef 1)
  %61 = load ptr, ptr %6, align 8
  %62 = call i32 @tvb_captured_length(ptr noundef %61)
  store i32 %62, ptr %5, align 4
  store i32 1, ptr %27, align 4
  call void @llvm.lifetime.end.p0(i64 8, ptr %26) #3
  br label %229

63:                                               ; preds = %4
  %64 = load i32, ptr %17, align 4
  %65 = add i32 %64, 1
  store i32 %65, ptr %17, align 4
  %66 = load ptr, ptr %6, align 8
  %67 = load i32, ptr %17, align 4
  %68 = call zeroext i8 @tvb_get_uint8(ptr noundef %66, i32 noundef %67)
  store i8 %68, ptr %19, align 1
  %69 = load i8, ptr %19, align 1
  %70 = zext i8 %69 to i32
  %71 = icmp ne i32 %70, 0
  br i1 %71, label %72, label %83

72:                                               ; preds = %63
  call void @llvm.lifetime.start.p0(i64 8, ptr %28) #3
  %73 = load ptr, ptr %8, align 8
  %74 = load i32, ptr @hf_vpp_minor_version, align 4
  %75 = load ptr, ptr %6, align 8
  %76 = load i32, ptr %17, align 4
  %77 = call ptr @proto_tree_add_item(ptr noundef %73, i32 noundef %74, ptr noundef %75, i32 noundef %76, i32 noundef 1, i32 noundef 0)
  store ptr %77, ptr %28, align 8
  %78 = load ptr, ptr %7, align 8
  %79 = load ptr, ptr %28, align 8
  %80 = load i8, ptr %19, align 1
  %81 = zext i8 %80 to i32
  %82 = call ptr (ptr, ptr, ptr, ptr, ...) @expert_add_info_format(ptr noundef %78, ptr noundef %79, ptr noundef @ei_vpp_minor_version_error, ptr noundef @.str.50, i32 noundef %81, i32 noundef 0)
  call void @llvm.lifetime.end.p0(i64 8, ptr %28) #3
  br label %83

83:                                               ; preds = %72, %63
  %84 = load i32, ptr %17, align 4
  %85 = add i32 %84, 1
  store i32 %85, ptr %17, align 4
  %86 = load ptr, ptr %6, align 8
  %87 = load i32, ptr %17, align 4
  %88 = call zeroext i8 @tvb_get_uint8(ptr noundef %86, i32 noundef %87)
  store i8 %88, ptr %20, align 1
  %89 = load i32, ptr %17, align 4
  %90 = add i32 %89, 1
  store i32 %90, ptr %17, align 4
  %91 = load ptr, ptr %6, align 8
  %92 = load i32, ptr %17, align 4
  %93 = call zeroext i8 @tvb_get_uint8(ptr noundef %91, i32 noundef %92)
  store i8 %93, ptr %21, align 1
  %94 = load i8, ptr %21, align 1
  %95 = zext i8 %94 to i64
  %96 = icmp uge i64 %95, 6
  br i1 %96, label %97, label %108

97:                                               ; preds = %83
  call void @llvm.lifetime.start.p0(i64 8, ptr %29) #3
  %98 = load ptr, ptr %8, align 8
  %99 = load i32, ptr @hf_vpp_protocol_hint, align 4
  %100 = load ptr, ptr %6, align 8
  %101 = load i32, ptr %17, align 4
  %102 = call ptr @proto_tree_add_item(ptr noundef %98, i32 noundef %99, ptr noundef %100, i32 noundef %101, i32 noundef 1, i32 noundef 0)
  store ptr %102, ptr %29, align 8
  %103 = load ptr, ptr %7, align 8
  %104 = load ptr, ptr %29, align 8
  %105 = load i8, ptr %21, align 1
  %106 = zext i8 %105 to i32
  %107 = call ptr (ptr, ptr, ptr, ptr, ...) @expert_add_info_format(ptr noundef %103, ptr noundef %104, ptr noundef @ei_vpp_protocol_hint_error, ptr noundef @.str.51, i32 noundef %106, i32 noundef 6)
  store i8 0, ptr %21, align 1
  call void @llvm.lifetime.end.p0(i64 8, ptr %29) #3
  br label %108

108:                                              ; preds = %97, %83
  %109 = load i32, ptr %17, align 4
  %110 = add i32 %109, 1
  store i32 %110, ptr %17, align 4
  %111 = load ptr, ptr %11, align 8
  %112 = load i32, ptr @hf_vpp_buffer_index, align 4
  %113 = load ptr, ptr %6, align 8
  %114 = load i32, ptr %17, align 4
  %115 = call ptr @proto_tree_add_item(ptr noundef %111, i32 noundef %112, ptr noundef %113, i32 noundef %114, i32 noundef 4, i32 noundef 0)
  %116 = load i32, ptr %17, align 4
  %117 = add i32 %116, 4
  store i32 %117, ptr %17, align 4
  %118 = load ptr, ptr %6, align 8
  %119 = load i32, ptr %17, align 4
  %120 = call i32 @tvb_strsize(ptr noundef %118, i32 noundef %119)
  store i32 %120, ptr %23, align 4
  %121 = load ptr, ptr %7, align 8
  %122 = getelementptr inbounds nuw %struct._packet_info, ptr %121, i32 0, i32 51
  %123 = load ptr, ptr %122, align 8
  %124 = load ptr, ptr %6, align 8
  %125 = load i32, ptr %17, align 4
  %126 = load i32, ptr %23, align 4
  %127 = call ptr @tvb_get_string_enc(ptr noundef %123, ptr noundef %124, i32 noundef %125, i32 noundef %126, i32 noundef 0)
  store ptr %127, ptr %22, align 8
  %128 = load ptr, ptr %8, align 8
  %129 = load i32, ptr @hf_vpp_nodename, align 4
  %130 = load ptr, ptr %6, align 8
  %131 = load i32, ptr %17, align 4
  %132 = load i32, ptr %23, align 4
  %133 = load ptr, ptr %22, align 8
  %134 = call ptr @proto_tree_add_string(ptr noundef %128, i32 noundef %129, ptr noundef %130, i32 noundef %131, i32 noundef %132, ptr noundef %133)
  %135 = load i32, ptr %23, align 4
  %136 = load i32, ptr %17, align 4
  %137 = add i32 %136, %135
  store i32 %137, ptr %17, align 4
  %138 = load ptr, ptr %6, align 8
  %139 = load i32, ptr %17, align 4
  %140 = call i32 @tvb_strsize(ptr noundef %138, i32 noundef %139)
  store i32 %140, ptr %23, align 4
  %141 = load ptr, ptr %6, align 8
  %142 = load i32, ptr %17, align 4
  %143 = call ptr @tvb_new_subset_remaining(ptr noundef %141, i32 noundef %142)
  store ptr %143, ptr %12, align 8
  %144 = load ptr, ptr @vpp_metadata_dissector_handle, align 8
  %145 = load ptr, ptr %12, align 8
  %146 = load ptr, ptr %7, align 8
  %147 = load ptr, ptr %8, align 8
  %148 = call i32 @call_dissector(ptr noundef %144, ptr noundef %145, ptr noundef %146, ptr noundef %147)
  %149 = load i32, ptr %23, align 4
  %150 = load i32, ptr %17, align 4
  %151 = add i32 %150, %149
  store i32 %151, ptr %17, align 4
  %152 = load ptr, ptr %6, align 8
  %153 = load i32, ptr %17, align 4
  %154 = call i32 @tvb_strsize(ptr noundef %152, i32 noundef %153)
  store i32 %154, ptr %23, align 4
  %155 = load ptr, ptr %6, align 8
  %156 = load i32, ptr %17, align 4
  %157 = call ptr @tvb_new_subset_remaining(ptr noundef %155, i32 noundef %156)
  store ptr %157, ptr %13, align 8
  %158 = load ptr, ptr @vpp_opaque_dissector_handle, align 8
  %159 = load ptr, ptr %13, align 8
  %160 = load ptr, ptr %7, align 8
  %161 = load ptr, ptr %8, align 8
  %162 = call i32 @call_dissector(ptr noundef %158, ptr noundef %159, ptr noundef %160, ptr noundef %161)
  %163 = load i32, ptr %23, align 4
  %164 = load i32, ptr %17, align 4
  %165 = add i32 %164, %163
  store i32 %165, ptr %17, align 4
  %166 = load ptr, ptr %6, align 8
  %167 = load i32, ptr %17, align 4
  %168 = call i32 @tvb_strsize(ptr noundef %166, i32 noundef %167)
  store i32 %168, ptr %23, align 4
  %169 = load ptr, ptr %6, align 8
  %170 = load i32, ptr %17, align 4
  %171 = call ptr @tvb_new_subset_remaining(ptr noundef %169, i32 noundef %170)
  store ptr %171, ptr %14, align 8
  %172 = load ptr, ptr @vpp_opaque2_dissector_handle, align 8
  %173 = load ptr, ptr %14, align 8
  %174 = load ptr, ptr %7, align 8
  %175 = load ptr, ptr %8, align 8
  %176 = call i32 @call_dissector(ptr noundef %172, ptr noundef %173, ptr noundef %174, ptr noundef %175)
  %177 = load i32, ptr %23, align 4
  %178 = load i32, ptr %17, align 4
  %179 = add i32 %178, %177
  store i32 %179, ptr %17, align 4
  %180 = load i8, ptr %20, align 1
  %181 = zext i8 %180 to i32
  %182 = icmp sgt i32 %181, 4
  br i1 %182, label %183, label %198

183:                                              ; preds = %108
  %184 = load ptr, ptr %6, align 8
  %185 = load i32, ptr %17, align 4
  %186 = call i32 @tvb_strsize(ptr noundef %184, i32 noundef %185)
  store i32 %186, ptr %23, align 4
  %187 = load ptr, ptr %6, align 8
  %188 = load i32, ptr %17, align 4
  %189 = call ptr @tvb_new_subset_remaining(ptr noundef %187, i32 noundef %188)
  store ptr %189, ptr %16, align 8
  %190 = load ptr, ptr @vpp_trace_dissector_handle, align 8
  %191 = load ptr, ptr %16, align 8
  %192 = load ptr, ptr %7, align 8
  %193 = load ptr, ptr %8, align 8
  %194 = call i32 @call_dissector(ptr noundef %190, ptr noundef %191, ptr noundef %192, ptr noundef %193)
  %195 = load i32, ptr %23, align 4
  %196 = load i32, ptr %17, align 4
  %197 = add i32 %196, %195
  store i32 %197, ptr %17, align 4
  br label %198

198:                                              ; preds = %183, %108
  %199 = load ptr, ptr %6, align 8
  %200 = load i32, ptr %17, align 4
  %201 = call ptr @tvb_new_subset_remaining(ptr noundef %199, i32 noundef %200)
  store ptr %201, ptr %15, align 8
  %202 = load i8, ptr %21, align 1
  %203 = zext i8 %202 to i64
  %204 = getelementptr [6 x ptr], ptr @next_dissectors, i64 0, i64 %203
  %205 = load ptr, ptr %204, align 8
  store ptr %205, ptr %25, align 8
  %206 = load i8, ptr %21, align 1
  %207 = zext i8 %206 to i32
  %208 = icmp eq i32 %207, 0
  br i1 %208, label %209, label %221

209:                                              ; preds = %198
  %210 = load ptr, ptr %6, align 8
  %211 = load i32, ptr %17, align 4
  %212 = call zeroext i8 @tvb_get_uint8(ptr noundef %210, i32 noundef %211)
  store i8 %212, ptr %24, align 1
  %213 = load i8, ptr %24, align 1
  %214 = zext i8 %213 to i32
  switch i32 %214, label %219 [
    i32 69, label %215
    i32 96, label %217
  ]

215:                                              ; preds = %209
  %216 = load ptr, ptr getelementptr ([6 x ptr], ptr @next_dissectors, i64 0, i64 2), align 16
  store ptr %216, ptr %25, align 8
  br label %220

217:                                              ; preds = %209
  %218 = load ptr, ptr getelementptr ([6 x ptr], ptr @next_dissectors, i64 0, i64 3), align 8
  store ptr %218, ptr %25, align 8
  br label %220

219:                                              ; preds = %209
  br label %220

220:                                              ; preds = %219, %217, %215
  br label %221

221:                                              ; preds = %220, %198
  %222 = load ptr, ptr %25, align 8
  %223 = load ptr, ptr %15, align 8
  %224 = load ptr, ptr %7, align 8
  %225 = load ptr, ptr %8, align 8
  %226 = call i32 @call_dissector(ptr noundef %222, ptr noundef %223, ptr noundef %224, ptr noundef %225)
  %227 = load ptr, ptr %6, align 8
  %228 = call i32 @tvb_captured_length(ptr noundef %227)
  store i32 %228, ptr %5, align 4
  store i32 1, ptr %27, align 4
  br label %229

229:                                              ; preds = %221, %50
  call void @llvm.lifetime.end.p0(i64 8, ptr %25) #3
  call void @llvm.lifetime.end.p0(i64 1, ptr %24) #3
  call void @llvm.lifetime.end.p0(i64 4, ptr %23) #3
  call void @llvm.lifetime.end.p0(i64 8, ptr %22) #3
  call void @llvm.lifetime.end.p0(i64 1, ptr %21) #3
  call void @llvm.lifetime.end.p0(i64 1, ptr %20) #3
  call void @llvm.lifetime.end.p0(i64 1, ptr %19) #3
  call void @llvm.lifetime.end.p0(i64 1, ptr %18) #3
  call void @llvm.lifetime.end.p0(i64 4, ptr %17) #3
  call void @llvm.lifetime.end.p0(i64 8, ptr %16) #3
  call void @llvm.lifetime.end.p0(i64 8, ptr %15) #3
  call void @llvm.lifetime.end.p0(i64 8, ptr %14) #3
  call void @llvm.lifetime.end.p0(i64 8, ptr %13) #3
  call void @llvm.lifetime.end.p0(i64 8, ptr %12) #3
  call void @llvm.lifetime.end.p0(i64 8, ptr %11) #3
  call void @llvm.lifetime.end.p0(i64 8, ptr %10) #3
  %230 = load i32, ptr %5, align 4
  ret i32 %230
}