; Function Attrs: null_pointer_is_valid sspstrong uwtable
define internal i32 @dissect_vpp(ptr noundef %0, ptr noundef %1, ptr noundef %2, ptr readnone captures(none) %3) #0 {
  %5 = getelementptr inbounds nuw i8, ptr %1, i64 8
  %6 = load ptr, ptr %5, align 8
  tail call void @col_set_str(ptr noundef %6, i32 noundef 35, ptr noundef nonnull @.str.25)
  %7 = load ptr, ptr %5, align 8
  tail call void @col_clear(ptr noundef %7, i32 noundef 25)
  %8 = load i32, ptr @proto_vpp, align 4
  %9 = tail call ptr @proto_tree_add_item(ptr noundef %2, i32 noundef %8, ptr noundef %0, i32 noundef 0, i32 noundef -1, i32 noundef 0)
  %10 = load i32, ptr @ett_vpp, align 4
  %11 = tail call ptr @proto_item_add_subtree(ptr noundef %9, i32 noundef %10)
  %12 = tail call zeroext i8 @tvb_get_uint8(ptr noundef %0, i32 noundef 0)
  %.not = icmp eq i8 %12, 1
  br i1 %.not, label %18, label %13

13:                                               ; preds = %4
  %14 = zext i8 %12 to i32
  %15 = load i32, ptr @hf_vpp_major_version, align 4
  %16 = tail call ptr @proto_tree_add_item(ptr noundef %2, i32 noundef %15, ptr noundef %0, i32 noundef 0, i32 noundef 1, i32 noundef 0)
  %17 = tail call ptr (ptr, ptr, ptr, ptr, ...) @expert_add_info_format(ptr noundef %1, ptr noundef %16, ptr noundef nonnull @ei_vpp_major_version_error, ptr noundef nonnull @.str.49, i32 noundef %14, i32 noundef 1)
  br label %80

18:                                               ; preds = %4
  %19 = tail call zeroext i8 @tvb_get_uint8(ptr noundef %0, i32 noundef 1)
  %.not111 = icmp eq i8 %19, 0
  br i1 %.not111, label %25, label %20

20:                                               ; preds = %18
  %21 = zext i8 %19 to i32
  %22 = load i32, ptr @hf_vpp_minor_version, align 4
  %23 = tail call ptr @proto_tree_add_item(ptr noundef %2, i32 noundef %22, ptr noundef %0, i32 noundef 1, i32 noundef 1, i32 noundef 0)
  %24 = tail call ptr (ptr, ptr, ptr, ptr, ...) @expert_add_info_format(ptr noundef %1, ptr noundef %23, ptr noundef nonnull @ei_vpp_minor_version_error, ptr noundef nonnull @.str.50, i32 noundef %21, i32 noundef 0)
  br label %25

25:                                               ; preds = %20, %18
  %26 = tail call zeroext i8 @tvb_get_uint8(ptr noundef %0, i32 noundef 2)
  %27 = tail call zeroext i8 @tvb_get_uint8(ptr noundef %0, i32 noundef 3)
  %28 = icmp ugt i8 %27, 5
  br i1 %28, label %29, label %34

29:                                               ; preds = %25
  %30 = load i32, ptr @hf_vpp_protocol_hint, align 4
  %31 = tail call ptr @proto_tree_add_item(ptr noundef %2, i32 noundef %30, ptr noundef %0, i32 noundef 3, i32 noundef 1, i32 noundef 0)
  %32 = zext i8 %27 to i32
  %33 = tail call ptr (ptr, ptr, ptr, ptr, ...) @expert_add_info_format(ptr noundef %1, ptr noundef %31, ptr noundef nonnull @ei_vpp_protocol_hint_error, ptr noundef nonnull @.str.51, i32 noundef %32, i32 noundef 6)
  br label %34

34:                                               ; preds = %29, %25
  %.0107 = phi i8 [ 0, %29 ], [ %27, %25 ]
  %35 = load i32, ptr @hf_vpp_buffer_index, align 4
  %36 = tail call ptr @proto_tree_add_item(ptr noundef %11, i32 noundef %35, ptr noundef %0, i32 noundef 4, i32 noundef 4, i32 noundef 0)
  %37 = tail call i32 @tvb_strsize(ptr noundef %0, i32 noundef 8)
  %38 = getelementptr inbounds nuw i8, ptr %1, i64 408
  %39 = load ptr, ptr %38, align 8
  %40 = tail call ptr @tvb_get_string_enc(ptr noundef %39, ptr noundef %0, i32 noundef 8, i32 noundef %37, i32 noundef 0)
  %41 = load i32, ptr @hf_vpp_nodename, align 4
  %42 = tail call ptr @proto_tree_add_string(ptr noundef %2, i32 noundef %41, ptr noundef %0, i32 noundef 8, i32 noundef %37, ptr noundef %40)
  %43 = add i32 %37, 8
  %44 = tail call i32 @tvb_strsize(ptr noundef %0, i32 noundef %43)
  %45 = tail call ptr @tvb_new_subset_remaining(ptr noundef %0, i32 noundef %43)
  %46 = load ptr, ptr @vpp_metadata_dissector_handle, align 8
  %47 = tail call i32 @call_dissector(ptr noundef %46, ptr noundef %45, ptr noundef %1, ptr noundef %2)
  %48 = add i32 %44, %43
  %49 = tail call i32 @tvb_strsize(ptr noundef %0, i32 noundef %48)
  %50 = tail call ptr @tvb_new_subset_remaining(ptr noundef %0, i32 noundef %48)
  %51 = load ptr, ptr @vpp_opaque_dissector_handle, align 8
  %52 = tail call i32 @call_dissector(ptr noundef %51, ptr noundef %50, ptr noundef %1, ptr noundef %2)
  %53 = add i32 %49, %48
  %54 = tail call i32 @tvb_strsize(ptr noundef %0, i32 noundef %53)
  %55 = tail call ptr @tvb_new_subset_remaining(ptr noundef %0, i32 noundef %53)
  %56 = load ptr, ptr @vpp_opaque2_dissector_handle, align 8
  %57 = tail call i32 @call_dissector(ptr noundef %56, ptr noundef %55, ptr noundef %1, ptr noundef %2)
  %58 = add i32 %54, %53
  %59 = icmp ugt i8 %26, 4
  br i1 %59, label %60, label %66

60:                                               ; preds = %34
  %61 = tail call i32 @tvb_strsize(ptr noundef %0, i32 noundef %58)
  %62 = tail call ptr @tvb_new_subset_remaining(ptr noundef %0, i32 noundef %58)
  %63 = load ptr, ptr @vpp_trace_dissector_handle, align 8
  %64 = tail call i32 @call_dissector(ptr noundef %63, ptr noundef %62, ptr noundef %1, ptr noundef %2)
  %65 = add i32 %61, %58
  br label %66

66:                                               ; preds = %60, %34
  %.0106 = phi i32 [ %65, %60 ], [ %58, %34 ]
  %67 = tail call ptr @tvb_new_subset_remaining(ptr noundef %0, i32 noundef %.0106)
  %68 = zext nneg i8 %.0107 to i64
  %69 = getelementptr [6 x ptr], ptr @next_dissectors, i64 0, i64 %68
  %70 = load ptr, ptr %69, align 8
  %71 = icmp eq i8 %.0107, 0
  br i1 %71, label %72, label %78

72:                                               ; preds = %66
  %73 = tail call zeroext i8 @tvb_get_uint8(ptr noundef %0, i32 noundef %.0106)
  switch i8 %73, label %78 [
    i8 69, label %74
    i8 96, label %76
  ]

74:                                               ; preds = %72
  %75 = load ptr, ptr getelementptr inbounds nuw (i8, ptr @next_dissectors, i64 16), align 16
  br label %78

76:                                               ; preds = %72
  %77 = load ptr, ptr getelementptr inbounds nuw (i8, ptr @next_dissectors, i64 24), align 8
  br label %78

78:                                               ; preds = %74, %76, %72, %66
  %.0108 = phi ptr [ %70, %72 ], [ %77, %76 ], [ %75, %74 ], [ %70, %66 ]
  %79 = tail call i32 @call_dissector(ptr noundef %.0108, ptr noundef %67, ptr noundef %1, ptr noundef %2)
  br label %80

80:                                               ; preds = %78, %13
  %81 = tail call i32 @tvb_captured_length(ptr noundef %0)
  ret i32 %81
}